#include <math.h>
#include <stdio.h>
#include <stdlib.h>
#include <string.h>

void px(int a[],int n)
{int i,j,k,t;
for(i=0;i<n;i++)
for(j=i+1;j<n;j++)
{if(a[i]<a[j])
{t=a[i];
a[i]=a[j];
a[j]=t;
}
}
}
void main()
{int m,n,i,j,k=0,l,s=0,t=0,a[300],b[300],f=0;
	for(i=0;;i++)
	{scanf("%d",&a[i]);
	if(getchar()!=',')break;
	}
	px(a,i+1);
	for(j=1;j<=i;j++)
		if(a[j]<a[0])
		{printf("%d",a[j]);f=1;break;}
		if(f==0)
		printf("No");
}